#include <math.h>
#include <stdio.h>
#include <stdlib.h>
#include <string.h>

int main()
{
	int a[300],i,j,k=1,t;
	char comma;
	scanf("%d",&a[0]);
	do
	{
		scanf("%c",&comma);
		if(comma!=',')
			break;
		scanf("%d",&a[k]);
		k=k+1;
	}while(k<=300);
	
	
	for(j=1;j<k;j++)
	{
		for(i=0;i<k-1;i++)
		{
			if(a[i]<a[i+1])
			{
				t=a[i+1];
				a[i+1]=a[i];
				a[i]=t;
			}
		}
	}
	if(a[0]==a[k-1])
		printf("No");
	else
	{
		for(i=1;i<=k-1;i++)
		{
			if(a[i]==a[0])
			a[i]=100000;
			if(a[i]<100000)
			{
				printf("%d",a[i]);
				break;
			}
		}
	}
	return 0;
}


